; Function Attrs: mustprogress nounwind uwtable
define internal fastcc void @_ZL13PrintLLVMNameRN4llvm11raw_ostreamENS_9StringRefE10PrefixType(ptr noundef nonnull align 8 dereferenceable(48) %0, ptr %1, i64 %2, i32 noundef %3) unnamed_addr #1 {
  switch i32 %3, label %_ZN4llvm11raw_ostreamlsEc.exit [
    i32 3, label %23
    i32 0, label %5
    i32 1, label %14
  ]

5:                                                ; preds = %4
  %6 = getelementptr inbounds nuw i8, ptr %0, i64 32
  %7 = load ptr, ptr %6, align 8
  %8 = getelementptr inbounds nuw i8, ptr %0, i64 24
  %9 = load ptr, ptr %8, align 8
  %.not.i = icmp ult ptr %7, %9
  br i1 %.not.i, label %12, label %10

10:                                               ; preds = %5
  %11 = tail call noundef nonnull align 8 dereferenceable(48) ptr @_ZN4llvm11raw_ostream5writeEh(ptr noundef nonnull align 8 dereferenceable(48) %0, i8 noundef zeroext 64) #25
  br label %_ZN4llvm11raw_ostreamlsEc.exit

12:                                               ; preds = %5
  %13 = getelementptr inbounds i8, ptr %7, i64 1
  store ptr %13, ptr %6, align 8
  store i8 64, ptr %7, align 1
  br label %_ZN4llvm11raw_ostreamlsEc.exit

14:                                               ; preds = %4
  %15 = getelementptr inbounds nuw i8, ptr %0, i64 32
  %16 = load ptr, ptr %15, align 8
  %17 = getelementptr inbounds nuw i8, ptr %0, i64 24
  %18 = load ptr, ptr %17, align 8
  %.not.i6 = icmp ult ptr %16, %18
  br i1 %.not.i6, label %21, label %19

19:                                               ; preds = %14
  %20 = tail call noundef nonnull align 8 dereferenceable(48) ptr @_ZN4llvm11raw_ostream5writeEh(ptr noundef nonnull align 8 dereferenceable(48) %0, i8 noundef zeroext 36) #25
  br label %_ZN4llvm11raw_ostreamlsEc.exit

21:                                               ; preds = %14
  %22 = getelementptr inbounds i8, ptr %16, i64 1
  store ptr %22, ptr %15, align 8
  store i8 36, ptr %16, align 1
  br label %_ZN4llvm11raw_ostreamlsEc.exit

23:                                               ; preds = %4
  %24 = getelementptr inbounds nuw i8, ptr %0, i64 32
  %25 = load ptr, ptr %24, align 8
  %26 = getelementptr inbounds nuw i8, ptr %0, i64 24
  %27 = load ptr, ptr %26, align 8
  %.not.i9 = icmp ult ptr %25, %27
  br i1 %.not.i9, label %30, label %28

28:                                               ; preds = %23
  %29 = tail call noundef nonnull align 8 dereferenceable(48) ptr @_ZN4llvm11raw_ostream5writeEh(ptr noundef nonnull align 8 dereferenceable(48) %0, i8 noundef zeroext 37) #25
  br label %_ZN4llvm11raw_ostreamlsEc.exit

30:                                               ; preds = %23
  %31 = getelementptr inbounds i8, ptr %25, i64 1
  store ptr %31, ptr %24, align 8
  store i8 37, ptr %25, align 1
  br label %_ZN4llvm11raw_ostreamlsEc.exit

_ZN4llvm11raw_ostreamlsEc.exit:                   ; preds = %30, %28, %21, %19, %12, %10, %4
  tail call void @_ZN4llvm26printLLVMNameWithoutPrefixERNS_11raw_ostreamENS_9StringRefE(ptr noundef nonnull align 8 dereferenceable(48) %0, ptr %1, i64 %2)
  ret void
}